(lp0
V's
p1
aVa
p2
aVadverse
p3
aVall
p4
aVanyone
p5
aVare
p6
aVawesome
p7
aVbe
p8
aVbehavior
p9
aVblood
p10
aVby
p11
aVbye
p12
aVcan
p13
aVcausing
p14
aVchatting
p15
aVcheck
p16
aVcould
p17
aVdata
p18
aVday
p19
aVdetail
p20
aVdo
p21
aVdont
p22
aVdrug
p23
aVentry
p24
aVfind
p25
aVfor
p26
aVgive
p27
aVgood
p28
aVgoodbye
p29
aVhave
p30
aVhello
p31
aVhelp
p32
aVhelpful
p33
aVhelping
p34
aVhey
p35
aVhi
p36
aVhistory
p37
aVhola
p38
aVhospital
p39
aVhow
p40
aVi
p41
aVid
p42
aVis
p43
aVlater
p44
aVlist
p45
aVload
p46
aVlocate
p47
aVlog
p48
aVlooking
p49
aVlookup
p50
aVmanagement
p51
aVme
p52
aVmodule
p53
aVnearby
p54
aVnext
p55
aVnice
p56
aVof
p57
aVoffered
p58
aVopen
p59
aVpatient
p60
aVpharmacy
p61
aVpressure
p62
aVprovide
p63
aVreaction
p64
aVrelated
p65
aVresult
p66
aVsearch
p67
aVsearching
p68
aVsee
p69
aVshow
p70
aVsuitable
p71
aVsupport
p72
aVtask
p73
aVthank
p74
aVthanks
p75
aVthat
p76
aVthere
p77
aVtill
p78
aVtime
p79
aVto
p80
aVtransfer
p81
aVup
p82
aVwant
p83
aVwhat
p84
aVwhich
p85
aVwith
p86
aVyou
p87
a.